target datalayout = "e-m:e-p270:32:32-p271:32:32-p272:64:64-i64:64-i128:128-f80:128-n8:16:32:64-S128"
target triple = "x86_64-pc-linux-gnu"

%struct.cl_fmap = type { ptr, ptr, ptr, i64, i64, i64, i64, i8, i8, i8, i64, i64, i64, i64, ptr, ptr, ptr, ptr, ptr, ptr, ptr, i8, [16 x i8], i8, [20 x i8], i8, [32 x i8], ptr, ptr }
%struct.gpt_header = type <{ i64, i32, i32, i32, i32, i64, i64, i64, i64, [16 x i8], i64, i32, i32, i32 }>
%struct.cli_ctx_tag = type { ptr, ptr, ptr, ptr, ptr, ptr, ptr, i64, ptr, i32, i32, ptr, i32, i32, ptr, [16 x i8], ptr, ptr, ptr, ptr, ptr, ptr, %struct.timeval, i8, i8 }
%struct.timeval = type { i64, i64 }

@.str.37 = private unnamed_addr constant [43 x i8] c"cli_scangpt: GPT header checksum mismatch\0A\00", align 1
@.str.38 = private unnamed_addr constant [48 x i8] c"cli_scangpt: Invalid GPT header signature %llx\0A\00", align 1
@.str.39 = private unnamed_addr constant [57 x i8] c"cli_scangpt: GPT header size does not match stated size\0A\00", align 1
@.str.40 = private unnamed_addr constant [56 x i8] c"cli_scangpt: GPT header reserved is not expected value\0A\00", align 1
@.str.41 = private unnamed_addr constant [51 x i8] c"cli_scangpt: GPT secondary header is not last LBA\0A\00", align 1
@.str.42 = private unnamed_addr constant [67 x i8] c"cli_scangpt: GPT first usable sectors is after last usable sector\0A\00", align 1
@.str.43 = private unnamed_addr constant [58 x i8] c"cli_scangpt: GPT usable sectors intersects header sector\0A\00", align 1
@.str.44 = private unnamed_addr constant [60 x i8] c"cli_scangpt: GPT usable sectors intersects partition table\0A\00", align 1
@.str.45 = private unnamed_addr constant [59 x i8] c"cli_scangpt: GPT partition table intersects header sector\0A\00", align 1
@.str.46 = private unnamed_addr constant [61 x i8] c"cli_scangpt: cannot parse gpt with partition entry sized %u\0A\00", align 1
@.str.47 = private unnamed_addr constant [58 x i8] c"cli_scangpt: GPT partition table extends over fmap limit\0A\00", align 1
@.str.48 = private unnamed_addr constant [52 x i8] c"cli_scangpt: GPT partition table checksum mismatch\0A\00", align 1

; Function Attrs: nounwind uwtable
define internal ptr @fmap_need_off_once(ptr noundef %0, i64 noundef %1, i64 noundef %2) #0 {
  %4 = alloca ptr, align 8
  %5 = alloca i64, align 8
  %6 = alloca i64, align 8
  store ptr %0, ptr %4, align 8
  store i64 %1, ptr %5, align 8
  store i64 %2, ptr %6, align 8
  %7 = load ptr, ptr %4, align 8
  %8 = getelementptr inbounds %struct.cl_fmap, ptr %7, i32 0, i32 15
  %9 = load ptr, ptr %8, align 8
  %10 = load ptr, ptr %4, align 8
  %11 = load i64, ptr %5, align 8
  %12 = load i64, ptr %6, align 8
  %13 = call ptr %9(ptr noundef %10, i64 noundef %11, i64 noundef %12, i32 noundef 0)
  ret ptr %13
}

; Function Attrs: nounwind uwtable
define internal void @gpt_printSectors(ptr noundef %0, i64 noundef %1) #0 {
  %3 = alloca ptr, align 8
  %4 = alloca i64, align 8
  store ptr %0, ptr %3, align 8
  store i64 %1, ptr %4, align 8
  ret void
}

; Function Attrs: nounwind uwtable
define internal i32 @gpt_validate_header(ptr noundef %0, ptr noundef byval(%struct.gpt_header) align 8 %1, i64 noundef %2) #0 {
  %4 = alloca ptr, align 8
  %5 = alloca i64, align 8
  %6 = alloca i32, align 4
  %7 = alloca i32, align 4
  %8 = alloca i32, align 4
  %9 = alloca i64, align 8
  %10 = alloca i64, align 8
  %11 = alloca i64, align 8
  %12 = alloca i64, align 8
  %13 = alloca i64, align 8
  %14 = alloca ptr, align 8
  store ptr %0, ptr %4, align 8
  store i64 %2, ptr %5, align 8
  store i32 0, ptr %6, align 4
  %15 = load ptr, ptr %4, align 8
  %16 = getelementptr inbounds %struct.cli_ctx_tag, ptr %15, i32 0, i32 14
  %17 = load ptr, ptr %16, align 8
  %18 = getelementptr inbounds %struct.cl_fmap, ptr %17, i32 0, i32 13
  %19 = load i64, ptr %18, align 8
  store i64 %19, ptr %11, align 8
  %20 = getelementptr inbounds %struct.gpt_header, ptr %1, i32 0, i32 3
  %21 = load i32, ptr %20, align 8
  store i32 %21, ptr %8, align 4
  %22 = getelementptr inbounds %struct.gpt_header, ptr %1, i32 0, i32 3
  store i32 0, ptr %22, align 8
  %23 = call i64 @crc32(i64 noundef 0, ptr noundef %1, i32 noundef 92)
  %24 = trunc i64 %23 to i32
  store i32 %24, ptr %7, align 4
  %25 = load i32, ptr %7, align 4
  %26 = load i32, ptr %8, align 4
  %27 = icmp ne i32 %25, %26
  br i1 %27, label %28, label %29

28:                                               ; preds = %3
  call void (ptr, ...) @cli_dbgmsg(ptr noundef @.str.37)
  store i32 26, ptr %6, align 4
  br label %264

29:                                               ; preds = %3
  %30 = getelementptr inbounds %struct.gpt_header, ptr %1, i32 0, i32 0
  %31 = load i64, ptr %30, align 8
  %32 = and i64 %31, 255
  %33 = shl i64 %32, 56
  %34 = getelementptr inbounds %struct.gpt_header, ptr %1, i32 0, i32 0
  %35 = load i64, ptr %34, align 8
  %36 = and i64 %35, 65280
  %37 = shl i64 %36, 40
  %38 = or i64 %33, %37
  %39 = getelementptr inbounds %struct.gpt_header, ptr %1, i32 0, i32 0
  %40 = load i64, ptr %39, align 8
  %41 = and i64 %40, 16711680
  %42 = shl i64 %41, 24
  %43 = or i64 %38, %42
  %44 = getelementptr inbounds %struct.gpt_header, ptr %1, i32 0, i32 0
  %45 = load i64, ptr %44, align 8
  %46 = and i64 %45, 4278190080
  %47 = shl i64 %46, 8
  %48 = or i64 %43, %47
  %49 = getelementptr inbounds %struct.gpt_header, ptr %1, i32 0, i32 0
  %50 = load i64, ptr %49, align 8
  %51 = and i64 %50, 1095216660480
  %52 = lshr i64 %51, 8
  %53 = or i64 %48, %52
  %54 = getelementptr inbounds %struct.gpt_header, ptr %1, i32 0, i32 0
  %55 = load i64, ptr %54, align 8
  %56 = and i64 %55, 280375465082880
  %57 = lshr i64 %56, 24
  %58 = or i64 %53, %57
  %59 = getelementptr inbounds %struct.gpt_header, ptr %1, i32 0, i32 0
  %60 = load i64, ptr %59, align 8
  %61 = and i64 %60, 71776119061217280
  %62 = lshr i64 %61, 40
  %63 = or i64 %58, %62
  %64 = getelementptr inbounds %struct.gpt_header, ptr %1, i32 0, i32 0
  %65 = load i64, ptr %64, align 8
  %66 = and i64 %65, -72057594037927936
  %67 = lshr i64 %66, 56
  %68 = or i64 %63, %67
  %69 = getelementptr inbounds %struct.gpt_header, ptr %1, i32 0, i32 0
  store i64 %68, ptr %69, align 8
  %70 = getelementptr inbounds %struct.gpt_header, ptr %1, i32 0, i32 1
  %71 = load i32, ptr %70, align 8
  %72 = and i32 %71, 255
  %73 = shl i32 %72, 24
  %74 = getelementptr inbounds %struct.gpt_header, ptr %1, i32 0, i32 1
  %75 = load i32, ptr %74, align 8
  %76 = and i32 %75, 65280
  %77 = shl i32 %76, 8
  %78 = or i32 %73, %77
  %79 = getelementptr inbounds %struct.gpt_header, ptr %1, i32 0, i32 1
  %80 = load i32, ptr %79, align 8
  %81 = and i32 %80, 16711680
  %82 = lshr i32 %81, 8
  %83 = or i32 %78, %82
  %84 = getelementptr inbounds %struct.gpt_header, ptr %1, i32 0, i32 1
  %85 = load i32, ptr %84, align 8
  %86 = and i32 %85, -16777216
  %87 = lshr i32 %86, 24
  %88 = or i32 %83, %87
  %89 = getelementptr inbounds %struct.gpt_header, ptr %1, i32 0, i32 1
  store i32 %88, ptr %89, align 8
  %90 = getelementptr inbounds %struct.gpt_header, ptr %1, i32 0, i32 2
  %91 = load i32, ptr %90, align 4
  %92 = getelementptr inbounds %struct.gpt_header, ptr %1, i32 0, i32 2
  store i32 %91, ptr %92, align 4
  %93 = load i32, ptr %8, align 4
  %94 = getelementptr inbounds %struct.gpt_header, ptr %1, i32 0, i32 3
  store i32 %93, ptr %94, align 8
  %95 = getelementptr inbounds %struct.gpt_header, ptr %1, i32 0, i32 4
  %96 = load i32, ptr %95, align 4
  %97 = getelementptr inbounds %struct.gpt_header, ptr %1, i32 0, i32 4
  store i32 %96, ptr %97, align 4
  %98 = getelementptr inbounds %struct.gpt_header, ptr %1, i32 0, i32 5
  %99 = load i64, ptr %98, align 8
  %100 = getelementptr inbounds %struct.gpt_header, ptr %1, i32 0, i32 5
  store i64 %99, ptr %100, align 8
  %101 = getelementptr inbounds %struct.gpt_header, ptr %1, i32 0, i32 6
  %102 = load i64, ptr %101, align 8
  %103 = getelementptr inbounds %struct.gpt_header, ptr %1, i32 0, i32 6
  store i64 %102, ptr %103, align 8
  %104 = getelementptr inbounds %struct.gpt_header, ptr %1, i32 0, i32 7
  %105 = load i64, ptr %104, align 8
  %106 = getelementptr inbounds %struct.gpt_header, ptr %1, i32 0, i32 7
  store i64 %105, ptr %106, align 8
  %107 = getelementptr inbounds %struct.gpt_header, ptr %1, i32 0, i32 8
  %108 = load i64, ptr %107, align 8
  %109 = getelementptr inbounds %struct.gpt_header, ptr %1, i32 0, i32 8
  store i64 %108, ptr %109, align 8
  %110 = getelementptr inbounds %struct.gpt_header, ptr %1, i32 0, i32 10
  %111 = load i64, ptr %110, align 8
  %112 = getelementptr inbounds %struct.gpt_header, ptr %1, i32 0, i32 10
  store i64 %111, ptr %112, align 8
  %113 = getelementptr inbounds %struct.gpt_header, ptr %1, i32 0, i32 11
  %114 = load i32, ptr %113, align 8
  %115 = getelementptr inbounds %struct.gpt_header, ptr %1, i32 0, i32 11
  store i32 %114, ptr %115, align 8
  %116 = getelementptr inbounds %struct.gpt_header, ptr %1, i32 0, i32 12
  %117 = load i32, ptr %116, align 4
  %118 = getelementptr inbounds %struct.gpt_header, ptr %1, i32 0, i32 12
  store i32 %117, ptr %118, align 4
  %119 = getelementptr inbounds %struct.gpt_header, ptr %1, i32 0, i32 13
  %120 = load i32, ptr %119, align 8
  %121 = getelementptr inbounds %struct.gpt_header, ptr %1, i32 0, i32 13
  store i32 %120, ptr %121, align 8
  %122 = getelementptr inbounds %struct.gpt_header, ptr %1, i32 0, i32 10
  %123 = load i64, ptr %122, align 8
  %124 = load i64, ptr %5, align 8
  %125 = mul i64 %123, %124
  store i64 %125, ptr %12, align 8
  %126 = getelementptr inbounds %struct.gpt_header, ptr %1, i32 0, i32 11
  %127 = load i32, ptr %126, align 8
  %128 = getelementptr inbounds %struct.gpt_header, ptr %1, i32 0, i32 12
  %129 = load i32, ptr %128, align 4
  %130 = mul i32 %127, %129
  %131 = zext i32 %130 to i64
  store i64 %131, ptr %13, align 8
  %132 = getelementptr inbounds %struct.gpt_header, ptr %1, i32 0, i32 10
  %133 = load i64, ptr %132, align 8
  %134 = load i64, ptr %13, align 8
  %135 = load i64, ptr %5, align 8
  %136 = udiv i64 %134, %135
  %137 = add i64 %133, %136
  %138 = sub i64 %137, 1
  store i64 %138, ptr %9, align 8
  %139 = load i64, ptr %11, align 8
  %140 = load i64, ptr %5, align 8
  %141 = udiv i64 %139, %140
  %142 = sub i64 %141, 1
  store i64 %142, ptr %10, align 8
  %143 = load ptr, ptr %4, align 8
  %144 = load i64, ptr %5, align 8
  call void @gpt_printSectors(ptr noundef %143, i64 noundef %144)
  %145 = getelementptr inbounds %struct.gpt_header, ptr %1, i32 0, i32 0
  %146 = load i64, ptr %145, align 8
  %147 = icmp ne i64 %146, 4991757640121012820
  br i1 %147, label %148, label %151

148:                                              ; preds = %29
  %149 = getelementptr inbounds %struct.gpt_header, ptr %1, i32 0, i32 0
  %150 = load i64, ptr %149, align 8
  call void (ptr, ...) @cli_dbgmsg(ptr noundef @.str.38, i64 noundef %150)
  store i32 26, ptr %6, align 4
  br label %264

151:                                              ; preds = %29
  %152 = getelementptr inbounds %struct.gpt_header, ptr %1, i32 0, i32 2
  %153 = load i32, ptr %152, align 4
  %154 = zext i32 %153 to i64
  %155 = icmp ne i64 %154, 92
  br i1 %155, label %156, label %157

156:                                              ; preds = %151
  call void (ptr, ...) @cli_dbgmsg(ptr noundef @.str.39)
  store i32 26, ptr %6, align 4
  br label %264

157:                                              ; preds = %151
  %158 = getelementptr inbounds %struct.gpt_header, ptr %1, i32 0, i32 4
  %159 = load i32, ptr %158, align 4
  %160 = icmp ne i32 %159, 0
  br i1 %160, label %161, label %162

161:                                              ; preds = %157
  call void (ptr, ...) @cli_dbgmsg(ptr noundef @.str.40)
  store i32 26, ptr %6, align 4
  br label %264

162:                                              ; preds = %157
  %163 = getelementptr inbounds %struct.gpt_header, ptr %1, i32 0, i32 5
  %164 = load i64, ptr %163, align 8
  %165 = icmp eq i64 %164, 1
  br i1 %165, label %166, label %171

166:                                              ; preds = %162
  %167 = getelementptr inbounds %struct.gpt_header, ptr %1, i32 0, i32 6
  %168 = load i64, ptr %167, align 8
  %169 = load i64, ptr %10, align 8
  %170 = icmp eq i64 %168, %169
  br i1 %170, label %181, label %171

171:                                              ; preds = %166, %162
  %172 = getelementptr inbounds %struct.gpt_header, ptr %1, i32 0, i32 5
  %173 = load i64, ptr %172, align 8
  %174 = load i64, ptr %10, align 8
  %175 = icmp eq i64 %173, %174
  br i1 %175, label %176, label %180

176:                                              ; preds = %171
  %177 = getelementptr inbounds %struct.gpt_header, ptr %1, i32 0, i32 6
  %178 = load i64, ptr %177, align 8
  %179 = icmp eq i64 %178, 1
  br i1 %179, label %181, label %180

180:                                              ; preds = %176, %171
  call void (ptr, ...) @cli_dbgmsg(ptr noundef @.str.41)
  store i32 26, ptr %6, align 4
  br label %264

181:                                              ; preds = %176, %166
  %182 = getelementptr inbounds %struct.gpt_header, ptr %1, i32 0, i32 7
  %183 = load i64, ptr %182, align 8
  %184 = getelementptr inbounds %struct.gpt_header, ptr %1, i32 0, i32 8
  %185 = load i64, ptr %184, align 8
  %186 = icmp ugt i64 %183, %185
  br i1 %186, label %187, label %188

187:                                              ; preds = %181
  call void (ptr, ...) @cli_dbgmsg(ptr noundef @.str.42)
  store i32 26, ptr %6, align 4
  br label %264

188:                                              ; preds = %181
  %189 = getelementptr inbounds %struct.gpt_header, ptr %1, i32 0, i32 7
  %190 = load i64, ptr %189, align 8
  %191 = icmp ule i64 %190, 1
  br i1 %191, label %197, label %192

192:                                              ; preds = %188
  %193 = getelementptr inbounds %struct.gpt_header, ptr %1, i32 0, i32 8
  %194 = load i64, ptr %193, align 8
  %195 = load i64, ptr %10, align 8
  %196 = icmp uge i64 %194, %195
  br i1 %196, label %197, label %198

197:                                              ; preds = %192, %188
  call void (ptr, ...) @cli_dbgmsg(ptr noundef @.str.43)
  store i32 26, ptr %6, align 4
  br label %264

198:                                              ; preds = %192
  %199 = getelementptr inbounds %struct.gpt_header, ptr %1, i32 0, i32 10
  %200 = load i64, ptr %199, align 8
  %201 = getelementptr inbounds %struct.gpt_header, ptr %1, i32 0, i32 7
  %202 = load i64, ptr %201, align 8
  %203 = icmp ule i64 %200, %202
  br i1 %203, label %204, label %209

204:                                              ; preds = %198
  %205 = load i64, ptr %9, align 8
  %206 = getelementptr inbounds %struct.gpt_header, ptr %1, i32 0, i32 7
  %207 = load i64, ptr %206, align 8
  %208 = icmp uge i64 %205, %207
  br i1 %208, label %221, label %209

209:                                              ; preds = %204, %198
  %210 = getelementptr inbounds %struct.gpt_header, ptr %1, i32 0, i32 10
  %211 = load i64, ptr %210, align 8
  %212 = getelementptr inbounds %struct.gpt_header, ptr %1, i32 0, i32 7
  %213 = load i64, ptr %212, align 8
  %214 = icmp uge i64 %211, %213
  br i1 %214, label %215, label %222

215:                                              ; preds = %209
  %216 = getelementptr inbounds %struct.gpt_header, ptr %1, i32 0, i32 10
  %217 = load i64, ptr %216, align 8
  %218 = getelementptr inbounds %struct.gpt_header, ptr %1, i32 0, i32 8
  %219 = load i64, ptr %218, align 8
  %220 = icmp ule i64 %217, %219
  br i1 %220, label %221, label %222

221:                                              ; preds = %215, %204
  call void (ptr, ...) @cli_dbgmsg(ptr noundef @.str.44)
  store i32 26, ptr %6, align 4
  br label %264

222:                                              ; preds = %215, %209
  %223 = getelementptr inbounds %struct.gpt_header, ptr %1, i32 0, i32 10
  %224 = load i64, ptr %223, align 8
  %225 = icmp ule i64 %224, 1
  br i1 %225, label %230, label %226

226:                                              ; preds = %222
  %227 = load i64, ptr %9, align 8
  %228 = load i64, ptr %10, align 8
  %229 = icmp uge i64 %227, %228
  br i1 %229, label %230, label %231

230:                                              ; preds = %226, %222
  call void (ptr, ...) @cli_dbgmsg(ptr noundef @.str.45)
  store i32 26, ptr %6, align 4
  br label %264

231:                                              ; preds = %226
  %232 = getelementptr inbounds %struct.gpt_header, ptr %1, i32 0, i32 12
  %233 = load i32, ptr %232, align 4
  %234 = zext i32 %233 to i64
  %235 = icmp ne i64 %234, 128
  br i1 %235, label %236, label %239

236:                                              ; preds = %231
  %237 = getelementptr inbounds %struct.gpt_header, ptr %1, i32 0, i32 12
  %238 = load i32, ptr %237, align 4
  call void (ptr, ...) @cli_dbgmsg(ptr noundef @.str.46, i32 noundef %238)
  store i32 26, ptr %6, align 4
  br label %264

239:                                              ; preds = %231
  %240 = load i64, ptr %12, align 8
  %241 = load i64, ptr %13, align 8
  %242 = add i64 %240, %241
  %243 = load i64, ptr %11, align 8
  %244 = icmp ugt i64 %242, %243
  br i1 %244, label %245, label %246

245:                                              ; preds = %239
  call void (ptr, ...) @cli_dbgmsg(ptr noundef @.str.47)
  store i32 26, ptr %6, align 4
  br label %264

246:                                              ; preds = %239
  %247 = load ptr, ptr %4, align 8
  %248 = getelementptr inbounds %struct.cli_ctx_tag, ptr %247, i32 0, i32 14
  %249 = load ptr, ptr %248, align 8
  %250 = load i64, ptr %12, align 8
  %251 = load i64, ptr %13, align 8
  %252 = call ptr @fmap_need_off_once(ptr noundef %249, i64 noundef %250, i64 noundef %251)
  store ptr %252, ptr %14, align 8
  %253 = load ptr, ptr %14, align 8
  %254 = load i64, ptr %13, align 8
  %255 = trunc i64 %254 to i32
  %256 = call i64 @crc32(i64 noundef 0, ptr noundef %253, i32 noundef %255)
  %257 = trunc i64 %256 to i32
  store i32 %257, ptr %7, align 4
  %258 = load i32, ptr %7, align 4
  %259 = getelementptr inbounds %struct.gpt_header, ptr %1, i32 0, i32 13
  %260 = load i32, ptr %259, align 8
  %261 = icmp ne i32 %258, %260
  br i1 %261, label %262, label %263

262:                                              ; preds = %246
  call void (ptr, ...) @cli_dbgmsg(ptr noundef @.str.48)
  store i32 26, ptr %6, align 4
  br label %264

263:                                              ; preds = %246
  br label %264

264:                                              ; preds = %263, %262, %245, %236, %230, %221, %197, %187, %180, %161, %156, %148, %28
  %265 = load i32, ptr %6, align 4
  ret i32 %265
}