; Function Attrs: nounwind uwtable
define internal fastcc noundef i32 @gpt_validate_header(ptr nocapture noundef readonly %0, ptr noundef byval(%struct.gpt_header) align 8 %1, i64 noundef %2) unnamed_addr #0 {
  %4 = getelementptr inbounds i8, ptr %0, i64 96
  %5 = load ptr, ptr %4, align 8
  %6 = getelementptr inbounds i8, ptr %5, i64 88
  %7 = load i64, ptr %6, align 8
  %8 = getelementptr inbounds i8, ptr %1, i64 16
  %9 = load i32, ptr %8, align 8
  store i32 0, ptr %8, align 8
  %10 = call i64 @crc32(i64 noundef 0, ptr noundef nonnull %1, i32 noundef 92) #7
  %11 = trunc i64 %10 to i32
  %.not = icmp eq i32 %9, %11
  br i1 %.not, label %13, label %12

12:                                               ; preds = %3
  call void (ptr, ...) @cli_dbgmsg(ptr noundef nonnull @.str.37) #7
  br label %85

13:                                               ; preds = %3
  %14 = load i64, ptr %1, align 8
  %15 = call i64 @llvm.bswap.i64(i64 %14)
  store i64 %15, ptr %1, align 8
  %16 = getelementptr inbounds i8, ptr %1, i64 8
  %17 = load i32, ptr %16, align 8
  %18 = call i32 @llvm.bswap.i32(i32 %17)
  store i32 %18, ptr %16, align 8
  store i32 %9, ptr %8, align 8
  %19 = getelementptr inbounds i8, ptr %1, i64 20
  %20 = getelementptr inbounds i8, ptr %1, i64 24
  %21 = getelementptr inbounds i8, ptr %1, i64 32
  %22 = getelementptr inbounds i8, ptr %1, i64 40
  %23 = getelementptr inbounds i8, ptr %1, i64 48
  %24 = getelementptr inbounds i8, ptr %1, i64 72
  %25 = load i64, ptr %24, align 8
  %26 = getelementptr inbounds i8, ptr %1, i64 80
  %27 = load i32, ptr %26, align 8
  %28 = getelementptr inbounds i8, ptr %1, i64 84
  %29 = load i32, ptr %28, align 4
  %30 = getelementptr inbounds i8, ptr %1, i64 88
  %31 = mul i64 %25, %2
  %32 = mul i32 %29, %27
  %33 = zext i32 %32 to i64
  %34 = udiv i64 %33, %2
  %35 = add i64 %25, -1
  %36 = add i64 %35, %34
  %37 = udiv i64 %7, %2
  %38 = add i64 %37, -1
  %.not34 = icmp eq i64 %14, 6075990659671082565
  br i1 %.not34, label %40, label %39

39:                                               ; preds = %13
  call void (ptr, ...) @cli_dbgmsg(ptr noundef nonnull @.str.38, i64 noundef %15) #7
  br label %85

40:                                               ; preds = %13
  %41 = getelementptr inbounds i8, ptr %1, i64 12
  %42 = load i32, ptr %41, align 4
  %.not35 = icmp eq i32 %42, 92
  br i1 %.not35, label %44, label %43

43:                                               ; preds = %40
  call void (ptr, ...) @cli_dbgmsg(ptr noundef nonnull @.str.39) #7
  br label %85

44:                                               ; preds = %40
  %45 = load i32, ptr %19, align 4
  %.not36 = icmp eq i32 %45, 0
  br i1 %.not36, label %47, label %46

46:                                               ; preds = %44
  call void (ptr, ...) @cli_dbgmsg(ptr noundef nonnull @.str.40) #7
  br label %85

47:                                               ; preds = %44
  %48 = load i64, ptr %20, align 8
  %49 = icmp eq i64 %48, 1
  %50 = load i64, ptr %21, align 8
  %51 = icmp eq i64 %50, %38
  %or.cond46 = select i1 %49, i1 %51, i1 false
  br i1 %or.cond46, label %56, label %52

52:                                               ; preds = %47
  %53 = icmp eq i64 %48, %38
  %54 = icmp eq i64 %50, 1
  %or.cond = select i1 %53, i1 %54, i1 false
  br i1 %or.cond, label %56, label %55

55:                                               ; preds = %52
  call void (ptr, ...) @cli_dbgmsg(ptr noundef nonnull @.str.41) #7
  br label %85

56:                                               ; preds = %47, %52
  %57 = load i64, ptr %22, align 8
  %58 = load i64, ptr %23, align 8
  %59 = icmp ugt i64 %57, %58
  br i1 %59, label %60, label %61

60:                                               ; preds = %56
  call void (ptr, ...) @cli_dbgmsg(ptr noundef nonnull @.str.42) #7
  br label %85

61:                                               ; preds = %56
  %62 = icmp ugt i64 %57, 1
  %.not37 = icmp ult i64 %58, %38
  %or.cond47 = select i1 %62, i1 %.not37, i1 false
  br i1 %or.cond47, label %64, label %63

63:                                               ; preds = %61
  call void (ptr, ...) @cli_dbgmsg(ptr noundef nonnull @.str.43) #7
  br label %85

64:                                               ; preds = %61
  %.not38 = icmp ugt i64 %25, %57
  %.not39 = icmp ult i64 %36, %57
  %or.cond48 = select i1 %.not38, i1 true, i1 %.not39
  br i1 %or.cond48, label %65, label %66

65:                                               ; preds = %64
  %.not40 = icmp ult i64 %25, %57
  %.not41 = icmp ugt i64 %25, %58
  %or.cond49 = or i1 %.not40, %.not41
  br i1 %or.cond49, label %67, label %66

66:                                               ; preds = %65, %64
  call void (ptr, ...) @cli_dbgmsg(ptr noundef nonnull @.str.44) #7
  br label %85

67:                                               ; preds = %65
  %68 = icmp ugt i64 %25, 1
  %.not42 = icmp ult i64 %36, %38
  %or.cond50 = select i1 %68, i1 %.not42, i1 false
  br i1 %or.cond50, label %70, label %69

69:                                               ; preds = %67
  call void (ptr, ...) @cli_dbgmsg(ptr noundef nonnull @.str.45) #7
  br label %85

70:                                               ; preds = %67
  %.not43 = icmp eq i32 %29, 128
  br i1 %.not43, label %72, label %71

71:                                               ; preds = %70
  call void (ptr, ...) @cli_dbgmsg(ptr noundef nonnull @.str.46, i32 noundef %29) #7
  br label %85

72:                                               ; preds = %70
  %73 = add i64 %31, %33
  %74 = icmp ugt i64 %73, %7
  br i1 %74, label %75, label %76

75:                                               ; preds = %72
  call void (ptr, ...) @cli_dbgmsg(ptr noundef nonnull @.str.47) #7
  br label %85

76:                                               ; preds = %72
  %77 = load ptr, ptr %4, align 8
  %78 = getelementptr inbounds i8, ptr %77, i64 104
  %79 = load ptr, ptr %78, align 8
  %80 = call ptr %79(ptr noundef %77, i64 noundef %31, i64 noundef %33, i32 noundef 0) #7
  %81 = call i64 @crc32(i64 noundef 0, ptr noundef %80, i32 noundef %32) #7
  %82 = trunc i64 %81 to i32
  %83 = load i32, ptr %30, align 8
  %.not44 = icmp eq i32 %83, %82
  br i1 %.not44, label %85, label %84

84:                                               ; preds = %76
  call void (ptr, ...) @cli_dbgmsg(ptr noundef nonnull @.str.48) #7
  br label %85

85:                                               ; preds = %76, %84, %75, %71, %69, %66, %63, %60, %55, %46, %43, %39, %12
  %.0 = phi i32 [ 26, %12 ], [ 26, %39 ], [ 26, %43 ], [ 26, %46 ], [ 26, %60 ], [ 26, %63 ], [ 26, %66 ], [ 26, %69 ], [ 26, %71 ], [ 26, %75 ], [ 26, %84 ], [ 0, %76 ], [ 26, %55 ]
  ret i32 %.0
}